target datalayout = "e-m:e-p270:32:32-p271:32:32-p272:64:64-i64:64-i128:128-f80:128-n8:16:32:64-S128"
target triple = "x86_64-pc-linux-gnu"

%struct.code = type { i8, i8, i16 }
%struct.z_stream_s = type { ptr, i32, i64, ptr, i32, i64, ptr, ptr, ptr, ptr, ptr, i32, i64, i64 }
%struct.inflate_state = type { ptr, i32, i32, i32, i32, i32, i32, i64, i64, ptr, i32, i32, i32, i32, ptr, i64, i32, i32, i32, i32, ptr, ptr, i32, i32, i32, i32, i32, i32, ptr, [320 x i16], [288 x i16], [1444 x %struct.code], i32, i32, i32 }

; Function Attrs: nounwind uwtable
define internal i32 @inflateStateCheck(ptr noundef %0) #0 {
  %2 = alloca i32, align 4
  %3 = alloca ptr, align 8
  %4 = alloca ptr, align 8
  store ptr %0, ptr %3, align 8
  %5 = load ptr, ptr %3, align 8
  %6 = icmp eq ptr %5, null
  br i1 %6, label %17, label %7

7:                                                ; preds = %1
  %8 = load ptr, ptr %3, align 8
  %9 = getelementptr inbounds %struct.z_stream_s, ptr %8, i32 0, i32 8
  %10 = load ptr, ptr %9, align 8
  %11 = icmp eq ptr %10, null
  br i1 %11, label %17, label %12

12:                                               ; preds = %7
  %13 = load ptr, ptr %3, align 8
  %14 = getelementptr inbounds %struct.z_stream_s, ptr %13, i32 0, i32 9
  %15 = load ptr, ptr %14, align 8
  %16 = icmp eq ptr %15, null
  br i1 %16, label %17, label %18

17:                                               ; preds = %12, %7, %1
  store i32 1, ptr %2, align 4
  br label %42

18:                                               ; preds = %12
  %19 = load ptr, ptr %3, align 8
  %20 = getelementptr inbounds %struct.z_stream_s, ptr %19, i32 0, i32 7
  %21 = load ptr, ptr %20, align 8
  store ptr %21, ptr %4, align 8
  %22 = load ptr, ptr %4, align 8
  %23 = icmp eq ptr %22, null
  br i1 %23, label %40, label %24

24:                                               ; preds = %18
  %25 = load ptr, ptr %4, align 8
  %26 = getelementptr inbounds %struct.inflate_state, ptr %25, i32 0, i32 0
  %27 = load ptr, ptr %26, align 8
  %28 = load ptr, ptr %3, align 8
  %29 = icmp ne ptr %27, %28
  br i1 %29, label %40, label %30

30:                                               ; preds = %24
  %31 = load ptr, ptr %4, align 8
  %32 = getelementptr inbounds %struct.inflate_state, ptr %31, i32 0, i32 1
  %33 = load i32, ptr %32, align 8
  %34 = icmp ult i32 %33, 16180
  br i1 %34, label %40, label %35

35:                                               ; preds = %30
  %36 = load ptr, ptr %4, align 8
  %37 = getelementptr inbounds %struct.inflate_state, ptr %36, i32 0, i32 1
  %38 = load i32, ptr %37, align 8
  %39 = icmp ugt i32 %38, 16211
  br i1 %39, label %40, label %41

40:                                               ; preds = %35, %30, %24, %18
  store i32 1, ptr %2, align 4
  br label %42

41:                                               ; preds = %35
  store i32 0, ptr %2, align 4
  br label %42

42:                                               ; preds = %41, %40, %17
  %43 = load i32, ptr %2, align 4
  ret i32 %43
}

; Function Attrs: nounwind uwtable
define dso_local i32 @cm_zlib_inflateReset2(ptr noundef %0, i32 noundef %1) #0 {
  %3 = alloca i32, align 4
  %4 = alloca ptr, align 8
  %5 = alloca i32, align 4
  %6 = alloca i32, align 4
  %7 = alloca ptr, align 8
  store ptr %0, ptr %4, align 8
  store i32 %1, ptr %5, align 4
  %8 = load ptr, ptr %4, align 8
  %9 = call i32 @inflateStateCheck(ptr noundef %8)
  %10 = icmp ne i32 %9, 0
  br i1 %10, label %11, label %12

11:                                               ; preds = %2
  store i32 -2, ptr %3, align 4
  br label %77

12:                                               ; preds = %2
  %13 = load ptr, ptr %4, align 8
  %14 = getelementptr inbounds %struct.z_stream_s, ptr %13, i32 0, i32 7
  %15 = load ptr, ptr %14, align 8
  store ptr %15, ptr %7, align 8
  %16 = load i32, ptr %5, align 4
  %17 = icmp slt i32 %16, 0
  br i1 %17, label %18, label %25

18:                                               ; preds = %12
  %19 = load i32, ptr %5, align 4
  %20 = icmp slt i32 %19, -15
  br i1 %20, label %21, label %22

21:                                               ; preds = %18
  store i32 -2, ptr %3, align 4
  br label %77

22:                                               ; preds = %18
  store i32 0, ptr %6, align 4
  %23 = load i32, ptr %5, align 4
  %24 = sub nsw i32 0, %23
  store i32 %24, ptr %5, align 4
  br label %35

25:                                               ; preds = %12
  %26 = load i32, ptr %5, align 4
  %27 = ashr i32 %26, 4
  %28 = add nsw i32 %27, 5
  store i32 %28, ptr %6, align 4
  %29 = load i32, ptr %5, align 4
  %30 = icmp slt i32 %29, 48
  br i1 %30, label %31, label %34

31:                                               ; preds = %25
  %32 = load i32, ptr %5, align 4
  %33 = and i32 %32, 15
  store i32 %33, ptr %5, align 4
  br label %34

34:                                               ; preds = %31, %25
  br label %35

35:                                               ; preds = %34, %22
  %36 = load i32, ptr %5, align 4
  %37 = icmp ne i32 %36, 0
  br i1 %37, label %38, label %45

38:                                               ; preds = %35
  %39 = load i32, ptr %5, align 4
  %40 = icmp slt i32 %39, 8
  br i1 %40, label %44, label %41

41:                                               ; preds = %38
  %42 = load i32, ptr %5, align 4
  %43 = icmp sgt i32 %42, 15
  br i1 %43, label %44, label %45

44:                                               ; preds = %41, %38
  store i32 -2, ptr %3, align 4
  br label %77

45:                                               ; preds = %41, %35
  %46 = load ptr, ptr %7, align 8
  %47 = getelementptr inbounds %struct.inflate_state, ptr %46, i32 0, i32 14
  %48 = load ptr, ptr %47, align 8
  %49 = icmp ne ptr %48, null
  br i1 %49, label %50, label %68

50:                                               ; preds = %45
  %51 = load ptr, ptr %7, align 8
  %52 = getelementptr inbounds %struct.inflate_state, ptr %51, i32 0, i32 10
  %53 = load i32, ptr %52, align 8
  %54 = load i32, ptr %5, align 4
  %55 = icmp ne i32 %53, %54
  br i1 %55, label %56, label %68

56:                                               ; preds = %50
  %57 = load ptr, ptr %4, align 8
  %58 = getelementptr inbounds %struct.z_stream_s, ptr %57, i32 0, i32 9
  %59 = load ptr, ptr %58, align 8
  %60 = load ptr, ptr %4, align 8
  %61 = getelementptr inbounds %struct.z_stream_s, ptr %60, i32 0, i32 10
  %62 = load ptr, ptr %61, align 8
  %63 = load ptr, ptr %7, align 8
  %64 = getelementptr inbounds %struct.inflate_state, ptr %63, i32 0, i32 14
  %65 = load ptr, ptr %64, align 8
  call void %59(ptr noundef %62, ptr noundef %65)
  %66 = load ptr, ptr %7, align 8
  %67 = getelementptr inbounds %struct.inflate_state, ptr %66, i32 0, i32 14
  store ptr null, ptr %67, align 8
  br label %68

68:                                               ; preds = %56, %50, %45
  %69 = load i32, ptr %6, align 4
  %70 = load ptr, ptr %7, align 8
  %71 = getelementptr inbounds %struct.inflate_state, ptr %70, i32 0, i32 3
  store i32 %69, ptr %71, align 8
  %72 = load i32, ptr %5, align 4
  %73 = load ptr, ptr %7, align 8
  %74 = getelementptr inbounds %struct.inflate_state, ptr %73, i32 0, i32 10
  store i32 %72, ptr %74, align 8
  %75 = load ptr, ptr %4, align 8
  %76 = call i32 @cm_zlib_inflateReset(ptr noundef %75)
  store i32 %76, ptr %3, align 4
  br label %77

77:                                               ; preds = %68, %44, %21, %11
  %78 = load i32, ptr %3, align 4
  ret i32 %78
}