; Function Attrs: nounwind uwtable
define dso_local range(i32 -2, 1) i32 @cm_zlib_inflateReset2(ptr noundef %0, i32 noundef %1) local_unnamed_addr #1 {
  %3 = icmp eq ptr %0, null
  br i1 %3, label %inflateStateCheck.exit.thread, label %4

4:                                                ; preds = %2
  %5 = getelementptr inbounds nuw i8, ptr %0, i64 64
  %6 = load ptr, ptr %5, align 8
  %7 = icmp eq ptr %6, null
  br i1 %7, label %inflateStateCheck.exit.thread, label %8

8:                                                ; preds = %4
  %9 = getelementptr inbounds nuw i8, ptr %0, i64 72
  %10 = load ptr, ptr %9, align 8
  %11 = icmp eq ptr %10, null
  br i1 %11, label %inflateStateCheck.exit.thread, label %12

12:                                               ; preds = %8
  %13 = getelementptr inbounds nuw i8, ptr %0, i64 56
  %14 = load ptr, ptr %13, align 8
  %15 = icmp eq ptr %14, null
  br i1 %15, label %inflateStateCheck.exit.thread, label %16

16:                                               ; preds = %12
  %17 = load ptr, ptr %14, align 8
  %.not.i = icmp eq ptr %17, %0
  br i1 %.not.i, label %inflateStateCheck.exit, label %inflateStateCheck.exit.thread

inflateStateCheck.exit:                           ; preds = %16
  %18 = getelementptr inbounds nuw i8, ptr %14, i64 8
  %19 = load i32, ptr %18, align 8
  %20 = add i32 %19, -16180
  %or.cond.i = icmp ult i32 %20, 32
  br i1 %or.cond.i, label %21, label %inflateStateCheck.exit.thread

21:                                               ; preds = %inflateStateCheck.exit
  %22 = icmp slt i32 %1, 0
  br i1 %22, label %23, label %27

23:                                               ; preds = %21
  %24 = icmp samesign ult i32 %1, -15
  br i1 %24, label %inflateStateCheck.exit.thread, label %25

25:                                               ; preds = %23
  %26 = sub nsw i32 0, %1
  br label %select.unfold

27:                                               ; preds = %21
  %28 = lshr i32 %1, 4
  %29 = add nuw nsw i32 %28, 5
  %30 = icmp samesign ult i32 %1, 48
  %31 = and i32 %1, 15
  %spec.select = select i1 %30, i32 %31, i32 %1
  br label %select.unfold

select.unfold:                                    ; preds = %27, %25
  %.025 = phi i32 [ %26, %25 ], [ %spec.select, %27 ]
  %.024 = phi i32 [ 0, %25 ], [ %29, %27 ]
  switch i32 %.025, label %inflateStateCheck.exit.thread [
    i32 15, label %32
    i32 14, label %32
    i32 13, label %32
    i32 12, label %32
    i32 11, label %32
    i32 10, label %32
    i32 9, label %32
    i32 8, label %32
    i32 0, label %32
  ]

32:                                               ; preds = %select.unfold, %select.unfold, %select.unfold, %select.unfold, %select.unfold, %select.unfold, %select.unfold, %select.unfold, %select.unfold
  %33 = getelementptr inbounds nuw i8, ptr %14, i64 72
  %34 = load ptr, ptr %33, align 8
  %.not29 = icmp eq ptr %34, null
  br i1 %.not29, label %41, label %35

35:                                               ; preds = %32
  %36 = getelementptr inbounds nuw i8, ptr %14, i64 56
  %37 = load i32, ptr %36, align 8
  %.not30 = icmp eq i32 %37, %.025
  br i1 %.not30, label %41, label %38

38:                                               ; preds = %35
  %39 = getelementptr inbounds nuw i8, ptr %0, i64 80
  %40 = load ptr, ptr %39, align 8
  tail call void %10(ptr noundef %40, ptr noundef nonnull %34) #9
  store ptr null, ptr %33, align 8
  br label %41

41:                                               ; preds = %38, %35, %32
  %42 = getelementptr inbounds nuw i8, ptr %14, i64 16
  store i32 %.024, ptr %42, align 8
  %43 = getelementptr inbounds nuw i8, ptr %14, i64 56
  store i32 %.025, ptr %43, align 8
  %44 = tail call i32 @cm_zlib_inflateReset(ptr noundef nonnull %0)
  br label %inflateStateCheck.exit.thread

inflateStateCheck.exit.thread:                    ; preds = %12, %16, %2, %4, %8, %select.unfold, %23, %inflateStateCheck.exit, %41
  %.0 = phi i32 [ %44, %41 ], [ -2, %inflateStateCheck.exit ], [ -2, %23 ], [ -2, %select.unfold ], [ -2, %8 ], [ -2, %4 ], [ -2, %2 ], [ -2, %16 ], [ -2, %12 ]
  ret i32 %.0
}